target datalayout = "e-m:e-p270:32:32-p271:32:32-p272:64:64-i64:64-i128:128-f80:128-n8:16:32:64-S128"
target triple = "x86_64-pc-linux-gnu"

%"class.absl::synchronization_internal::(anonymous namespace)::PthreadMutexHolder" = type { ptr }

@.str = private unnamed_addr constant [147 x i8] c"generated/home/dtcxzyw/WorkSpace/Projects/compilers/llvm-opt-benchmark/bench/abseil-cpp/abseil-cpp/absl/synchronization/internal/pthread_waiter.cc\00", align 1
@.str.7 = private unnamed_addr constant [32 x i8] c"pthread_mutex_unlock failed: %d\00", align 1

; Function Attrs: mustprogress nounwind uwtable
define internal void @_ZN4absl24synchronization_internal12_GLOBAL__N_118PthreadMutexHolderD2Ev(ptr noundef nonnull align 8 dereferenceable(8) %0) unnamed_addr #4 align 2 personality ptr @__gxx_personality_v0 {
  %2 = alloca ptr, align 8
  %3 = alloca i32, align 4
  %4 = alloca ptr, align 8
  store ptr %0, ptr %2, align 8, !tbaa !29
  %5 = load ptr, ptr %2, align 8
  call void @llvm.lifetime.start.p0(i64 4, ptr %3) #8
  %6 = getelementptr inbounds nuw %"class.absl::synchronization_internal::(anonymous namespace)::PthreadMutexHolder", ptr %5, i32 0, i32 0
  %7 = load ptr, ptr %6, align 8, !tbaa !32
  %8 = call i32 @pthread_mutex_unlock(ptr noundef %7) #8
  store i32 %8, ptr %3, align 4, !tbaa !13
  %9 = load i32, ptr %3, align 4, !tbaa !13
  %10 = icmp ne i32 %9, 0
  br i1 %10, label %11, label %20

11:                                               ; preds = %1
  br label %12

12:                                               ; preds = %11
  call void @llvm.lifetime.start.p0(i64 8, ptr %4) #8
  store ptr getelementptr (i8, ptr @.str, i64 129), ptr %4, align 8, !tbaa !14
  %13 = load i32, ptr %3, align 4, !tbaa !13
  invoke void (i32, ptr, i32, ptr, ...) @_ZN4absl16raw_log_internal6RawLogENS_11LogSeverityEPKciS3_z(i32 noundef 3, ptr noundef getelementptr (i8, ptr @.str, i64 129), i32 noundef 52, ptr noundef @.str.7, i32 noundef %13)
          to label %14 unwind label %21

14:                                               ; preds = %12
  br label %15

15:                                               ; preds = %14
  unreachable

16:                                               ; No predecessors!
  br label %17

17:                                               ; preds = %16
  call void @llvm.lifetime.end.p0(i64 8, ptr %4) #8
  br label %18

18:                                               ; preds = %17
  br label %19

19:                                               ; preds = %18
  br label %20

20:                                               ; preds = %19, %1
  call void @llvm.lifetime.end.p0(i64 4, ptr %3) #8
  ret void

21:                                               ; preds = %12
  %22 = landingpad { ptr, i32 }
          catch ptr null
  %23 = extractvalue { ptr, i32 } %22, 0
  call void @__clang_call_terminate(ptr %23) #9
  unreachable
}