; Function Attrs: mustprogress nounwind uwtable
define internal fastcc void @_ZN4absl24synchronization_internal12_GLOBAL__N_118PthreadMutexHolderD2Ev(ptr %.0.val) unnamed_addr #4 align 2 personality ptr @__gxx_personality_v0 {
  %1 = tail call i32 @pthread_mutex_unlock(ptr noundef %.0.val) #7
  %.not = icmp eq i32 %1, 0
  br i1 %.not, label %4, label %2

2:                                                ; preds = %0
  invoke void (i32, ptr, i32, ptr, ...) @_ZN4absl16raw_log_internal6RawLogENS_11LogSeverityEPKciS3_z(i32 noundef 3, ptr noundef nonnull getelementptr inbounds nuw (i8, ptr @.str, i64 129), i32 noundef 52, ptr noundef nonnull @.str.7, i32 noundef %1)
          to label %3 unwind label %5

3:                                                ; preds = %2
  unreachable

4:                                                ; preds = %0
  ret void

5:                                                ; preds = %2
  %6 = landingpad { ptr, i32 }
          catch ptr null
  %7 = extractvalue { ptr, i32 } %6, 0
  tail call void @__clang_call_terminate(ptr %7) #8
  unreachable
}